target datalayout = "e-m:e-p270:32:32-p271:32:32-p272:64:64-i64:64-i128:128-f80:128-n8:16:32:64-S128"
target triple = "x86_64-pc-linux-gnu"

%struct.CodedBitstreamContext = type { ptr, ptr, ptr, ptr, i32, i32, i32, ptr, ptr, ptr, ptr, i64 }
%struct.CodedBitstreamAV1Context = type { ptr, ptr, ptr, i32, ptr, ptr, i64, i32, i32, i32, i32, i32, i32, i32, i32, i32, i32, i32, i32, i32, i32, i32, i32, [8 x i32], [8 x i32], [8 x %struct.AV1ReferenceFrameState], i32, i32, [8 x i8], [2 x i8], [8 x [8 x i8]], [8 x [8 x i16]] }
%struct.AV1ReferenceFrameState = type { i32, i32, i32, i32, i32, i32, i32, i32, i32, i32, i32, i32, [8 x i32], [8 x i8], [2 x i8], [8 x [8 x i8]], [8 x [8 x i16]] }
%struct.AV1RawFrameHeader = type { i8, i8, i32, i32, i8, i8, i8, i8, i8, i8, i8, i32, i8, i8, i8, [32 x i32], i8, i16, i16, i8, i8, i8, i16, i16, [7 x i8], i8, i8, [8 x i8], i8, i8, i8, [7 x i8], [7 x i32], i8, i8, i8, i8, i8, i8, i8, i8, i8, [64 x i8], [64 x i8], [64 x i8], [64 x i8], i16, i8, i16, i16, i8, i8, i8, i8, i8, i8, i8, i8, i8, i8, i8, i8, i8, i8, i8, [8 x [8 x i8]], [8 x [8 x i16]], i8, i8, i8, i8, i8, [4 x i8], i8, i8, i8, [8 x i8], [8 x i8], [2 x i8], [2 x i8], i8, i8, [8 x i8], [8 x i8], [8 x i8], [8 x i8], [3 x i8], i8, i8, i8, i8, i8, i8, i8, [8 x i8], [8 x i8], [8 x i8], [8 x [6 x i32]], %struct.AV1RawFilmGrainParams }
%struct.AV1RawFilmGrainParams = type { i8, i16, i8, i8, i8, [14 x i8], [14 x i8], i8, i8, [10 x i8], [10 x i8], i8, [10 x i8], [10 x i8], i8, i8, [24 x i8], [25 x i8], [25 x i8], i8, i8, i8, i8, i16, i8, i8, i16, i8, i8 }

@.str.142 = private unnamed_addr constant [20 x i8] c"frame_width_minus_1\00", align 1
@.str.143 = private unnamed_addr constant [21 x i8] c"frame_height_minus_1\00", align 1
@.str.147 = private unnamed_addr constant [21 x i8] c"render_width_minus_1\00", align 1
@.str.148 = private unnamed_addr constant [22 x i8] c"render_height_minus_1\00", align 1
@.str.149 = private unnamed_addr constant [13 x i8] c"found_ref[i]\00", align 1
@.str.150 = private unnamed_addr constant [79 x i8] c"Missing reference frame needed for frame size (ref = %d, ref_frame_idx = %d).\0A\00", align 1
@.str.317 = private unnamed_addr constant [59 x i8] c"%s does not match inferred value: %ld, but should be %ld.\0A\00", align 1

; Function Attrs: nounwind uwtable
define internal i32 @cbs_av1_write_frame_size_with_refs(ptr noundef %0, ptr noundef %1, ptr noundef %2) #0 {
  %4 = alloca i32, align 4
  %5 = alloca ptr, align 8
  %6 = alloca ptr, align 8
  %7 = alloca ptr, align 8
  %8 = alloca ptr, align 8
  %9 = alloca i32, align 4
  %10 = alloca i32, align 4
  %11 = alloca [2 x i32], align 4
  %12 = alloca i32, align 4
  %13 = alloca ptr, align 8
  store ptr %0, ptr %5, align 8, !tbaa !4
  store ptr %1, ptr %6, align 8, !tbaa !71
  store ptr %2, ptr %7, align 8, !tbaa !159
  call void @llvm.lifetime.start.p0(i64 8, ptr %8) #8
  %14 = load ptr, ptr %5, align 8, !tbaa !4
  %15 = getelementptr inbounds nuw %struct.CodedBitstreamContext, ptr %14, i32 0, i32 2
  %16 = load ptr, ptr %15, align 8, !tbaa !36
  store ptr %16, ptr %8, align 8, !tbaa !37
  call void @llvm.lifetime.start.p0(i64 4, ptr %9) #8
  call void @llvm.lifetime.start.p0(i64 4, ptr %10) #8
  store i32 0, ptr %9, align 4, !tbaa !11
  br label %17

17:                                               ; preds = %212, %3
  %18 = load i32, ptr %9, align 4, !tbaa !11
  %19 = icmp slt i32 %18, 7
  br i1 %19, label %20, label %215

20:                                               ; preds = %17
  br label %21

21:                                               ; preds = %20
  br label %22

22:                                               ; preds = %21
  %23 = load ptr, ptr %5, align 8, !tbaa !4
  %24 = load ptr, ptr %6, align 8, !tbaa !71
  store i32 1, ptr %11, align 4, !tbaa !11
  %25 = getelementptr inbounds i32, ptr %11, i64 1
  %26 = load i32, ptr %9, align 4, !tbaa !11
  store i32 %26, ptr %25, align 4, !tbaa !11
  %27 = getelementptr inbounds [2 x i32], ptr %11, i64 0, i64 0
  %28 = load ptr, ptr %7, align 8, !tbaa !159
  %29 = getelementptr inbounds nuw %struct.AV1RawFrameHeader, ptr %28, i32 0, i32 24
  %30 = load i32, ptr %9, align 4, !tbaa !11
  %31 = sext i32 %30 to i64
  %32 = getelementptr inbounds [7 x i8], ptr %29, i64 0, i64 %31
  %33 = load i8, ptr %32, align 1, !tbaa !27
  %34 = zext i8 %33 to i32
  %35 = call i32 @ff_cbs_write_unsigned(ptr noundef %23, ptr noundef %24, i32 noundef 1, ptr noundef @.str.149, ptr noundef %27, i32 noundef %34, i32 noundef 0, i32 noundef 1)
  store i32 %35, ptr %10, align 4, !tbaa !11
  %36 = load i32, ptr %10, align 4, !tbaa !11
  %37 = icmp slt i32 %36, 0
  br i1 %37, label %38, label %40

38:                                               ; preds = %22
  %39 = load i32, ptr %10, align 4, !tbaa !11
  store i32 %39, ptr %4, align 4
  store i32 1, ptr %12, align 4
  br label %257

40:                                               ; preds = %22
  br label %41

41:                                               ; preds = %40
  br label %42

42:                                               ; preds = %41
  br label %43

43:                                               ; preds = %42
  br label %44

44:                                               ; preds = %43
  %45 = load ptr, ptr %7, align 8, !tbaa !159
  %46 = getelementptr inbounds nuw %struct.AV1RawFrameHeader, ptr %45, i32 0, i32 24
  %47 = load i32, ptr %9, align 4, !tbaa !11
  %48 = sext i32 %47 to i64
  %49 = getelementptr inbounds [7 x i8], ptr %46, i64 0, i64 %48
  %50 = load i8, ptr %49, align 1, !tbaa !27
  %51 = icmp ne i8 %50, 0
  br i1 %51, label %52, label %211

52:                                               ; preds = %44
  call void @llvm.lifetime.start.p0(i64 8, ptr %13) #8
  %53 = load ptr, ptr %8, align 8, !tbaa !37
  %54 = getelementptr inbounds nuw %struct.CodedBitstreamAV1Context, ptr %53, i32 0, i32 25
  %55 = load ptr, ptr %7, align 8, !tbaa !159
  %56 = getelementptr inbounds nuw %struct.AV1RawFrameHeader, ptr %55, i32 0, i32 31
  %57 = load i32, ptr %9, align 4, !tbaa !11
  %58 = sext i32 %57 to i64
  %59 = getelementptr inbounds [7 x i8], ptr %56, i64 0, i64 %58
  %60 = load i8, ptr %59, align 1, !tbaa !27
  %61 = sext i8 %60 to i64
  %62 = getelementptr inbounds [8 x %struct.AV1ReferenceFrameState], ptr %54, i64 0, i64 %61
  store ptr %62, ptr %13, align 8, !tbaa !226
  %63 = load ptr, ptr %13, align 8, !tbaa !226
  %64 = getelementptr inbounds nuw %struct.AV1ReferenceFrameState, ptr %63, i32 0, i32 0
  %65 = load i32, ptr %64, align 4, !tbaa !228
  %66 = icmp ne i32 %65, 0
  br i1 %66, label %79, label %67

67:                                               ; preds = %52
  %68 = load ptr, ptr %5, align 8, !tbaa !4
  %69 = getelementptr inbounds nuw %struct.CodedBitstreamContext, ptr %68, i32 0, i32 0
  %70 = load ptr, ptr %69, align 8, !tbaa !26
  %71 = load i32, ptr %9, align 4, !tbaa !11
  %72 = load ptr, ptr %7, align 8, !tbaa !159
  %73 = getelementptr inbounds nuw %struct.AV1RawFrameHeader, ptr %72, i32 0, i32 31
  %74 = load i32, ptr %9, align 4, !tbaa !11
  %75 = sext i32 %74 to i64
  %76 = getelementptr inbounds [7 x i8], ptr %73, i64 0, i64 %75
  %77 = load i8, ptr %76, align 1, !tbaa !27
  %78 = sext i8 %77 to i32
  call void (ptr, i32, ptr, ...) @av_log(ptr noundef %70, i32 noundef 16, ptr noundef @.str.150, i32 noundef %71, i32 noundef %78)
  store i32 -1094995529, ptr %4, align 4
  store i32 1, ptr %12, align 4
  br label %209

79:                                               ; preds = %52
  br label %80

80:                                               ; preds = %79
  %81 = load ptr, ptr %7, align 8, !tbaa !159
  %82 = getelementptr inbounds nuw %struct.AV1RawFrameHeader, ptr %81, i32 0, i32 17
  %83 = load i16, ptr %82, align 2, !tbaa !251
  %84 = zext i16 %83 to i32
  %85 = load ptr, ptr %13, align 8, !tbaa !226
  %86 = getelementptr inbounds nuw %struct.AV1ReferenceFrameState, ptr %85, i32 0, i32 2
  %87 = load i32, ptr %86, align 4, !tbaa !238
  %88 = sub nsw i32 %87, 1
  %89 = icmp ne i32 %84, %88
  br i1 %89, label %90, label %103

90:                                               ; preds = %80
  %91 = load ptr, ptr %5, align 8, !tbaa !4
  %92 = getelementptr inbounds nuw %struct.CodedBitstreamContext, ptr %91, i32 0, i32 0
  %93 = load ptr, ptr %92, align 8, !tbaa !26
  %94 = load ptr, ptr %7, align 8, !tbaa !159
  %95 = getelementptr inbounds nuw %struct.AV1RawFrameHeader, ptr %94, i32 0, i32 17
  %96 = load i16, ptr %95, align 2, !tbaa !251
  %97 = zext i16 %96 to i64
  %98 = load ptr, ptr %13, align 8, !tbaa !226
  %99 = getelementptr inbounds nuw %struct.AV1ReferenceFrameState, ptr %98, i32 0, i32 2
  %100 = load i32, ptr %99, align 4, !tbaa !238
  %101 = sub nsw i32 %100, 1
  %102 = sext i32 %101 to i64
  call void (ptr, i32, ptr, ...) @av_log(ptr noundef %93, i32 noundef 16, ptr noundef @.str.317, ptr noundef @.str.142, i64 noundef %97, i64 noundef %102)
  store i32 -1094995529, ptr %4, align 4
  store i32 1, ptr %12, align 4
  br label %209

103:                                              ; preds = %80
  br label %104

104:                                              ; preds = %103
  br label %105

105:                                              ; preds = %104
  br label %106

106:                                              ; preds = %105
  %107 = load ptr, ptr %7, align 8, !tbaa !159
  %108 = getelementptr inbounds nuw %struct.AV1RawFrameHeader, ptr %107, i32 0, i32 18
  %109 = load i16, ptr %108, align 4, !tbaa !252
  %110 = zext i16 %109 to i32
  %111 = load ptr, ptr %13, align 8, !tbaa !226
  %112 = getelementptr inbounds nuw %struct.AV1ReferenceFrameState, ptr %111, i32 0, i32 4
  %113 = load i32, ptr %112, align 4, !tbaa !242
  %114 = sub nsw i32 %113, 1
  %115 = icmp ne i32 %110, %114
  br i1 %115, label %116, label %129

116:                                              ; preds = %106
  %117 = load ptr, ptr %5, align 8, !tbaa !4
  %118 = getelementptr inbounds nuw %struct.CodedBitstreamContext, ptr %117, i32 0, i32 0
  %119 = load ptr, ptr %118, align 8, !tbaa !26
  %120 = load ptr, ptr %7, align 8, !tbaa !159
  %121 = getelementptr inbounds nuw %struct.AV1RawFrameHeader, ptr %120, i32 0, i32 18
  %122 = load i16, ptr %121, align 4, !tbaa !252
  %123 = zext i16 %122 to i64
  %124 = load ptr, ptr %13, align 8, !tbaa !226
  %125 = getelementptr inbounds nuw %struct.AV1ReferenceFrameState, ptr %124, i32 0, i32 4
  %126 = load i32, ptr %125, align 4, !tbaa !242
  %127 = sub nsw i32 %126, 1
  %128 = sext i32 %127 to i64
  call void (ptr, i32, ptr, ...) @av_log(ptr noundef %119, i32 noundef 16, ptr noundef @.str.317, ptr noundef @.str.143, i64 noundef %123, i64 noundef %128)
  store i32 -1094995529, ptr %4, align 4
  store i32 1, ptr %12, align 4
  br label %209

129:                                              ; preds = %106
  br label %130

130:                                              ; preds = %129
  br label %131

131:                                              ; preds = %130
  br label %132

132:                                              ; preds = %131
  %133 = load ptr, ptr %7, align 8, !tbaa !159
  %134 = getelementptr inbounds nuw %struct.AV1RawFrameHeader, ptr %133, i32 0, i32 22
  %135 = load i16, ptr %134, align 2, !tbaa !253
  %136 = zext i16 %135 to i32
  %137 = load ptr, ptr %13, align 8, !tbaa !226
  %138 = getelementptr inbounds nuw %struct.AV1ReferenceFrameState, ptr %137, i32 0, i32 5
  %139 = load i32, ptr %138, align 4, !tbaa !244
  %140 = sub nsw i32 %139, 1
  %141 = icmp ne i32 %136, %140
  br i1 %141, label %142, label %155

142:                                              ; preds = %132
  %143 = load ptr, ptr %5, align 8, !tbaa !4
  %144 = getelementptr inbounds nuw %struct.CodedBitstreamContext, ptr %143, i32 0, i32 0
  %145 = load ptr, ptr %144, align 8, !tbaa !26
  %146 = load ptr, ptr %7, align 8, !tbaa !159
  %147 = getelementptr inbounds nuw %struct.AV1RawFrameHeader, ptr %146, i32 0, i32 22
  %148 = load i16, ptr %147, align 2, !tbaa !253
  %149 = zext i16 %148 to i64
  %150 = load ptr, ptr %13, align 8, !tbaa !226
  %151 = getelementptr inbounds nuw %struct.AV1ReferenceFrameState, ptr %150, i32 0, i32 5
  %152 = load i32, ptr %151, align 4, !tbaa !244
  %153 = sub nsw i32 %152, 1
  %154 = sext i32 %153 to i64
  call void (ptr, i32, ptr, ...) @av_log(ptr noundef %145, i32 noundef 16, ptr noundef @.str.317, ptr noundef @.str.147, i64 noundef %149, i64 noundef %154)
  store i32 -1094995529, ptr %4, align 4
  store i32 1, ptr %12, align 4
  br label %209

155:                                              ; preds = %132
  br label %156

156:                                              ; preds = %155
  br label %157

157:                                              ; preds = %156
  br label %158

158:                                              ; preds = %157
  %159 = load ptr, ptr %7, align 8, !tbaa !159
  %160 = getelementptr inbounds nuw %struct.AV1RawFrameHeader, ptr %159, i32 0, i32 23
  %161 = load i16, ptr %160, align 4, !tbaa !254
  %162 = zext i16 %161 to i32
  %163 = load ptr, ptr %13, align 8, !tbaa !226
  %164 = getelementptr inbounds nuw %struct.AV1ReferenceFrameState, ptr %163, i32 0, i32 6
  %165 = load i32, ptr %164, align 4, !tbaa !246
  %166 = sub nsw i32 %165, 1
  %167 = icmp ne i32 %162, %166
  br i1 %167, label %168, label %181

168:                                              ; preds = %158
  %169 = load ptr, ptr %5, align 8, !tbaa !4
  %170 = getelementptr inbounds nuw %struct.CodedBitstreamContext, ptr %169, i32 0, i32 0
  %171 = load ptr, ptr %170, align 8, !tbaa !26
  %172 = load ptr, ptr %7, align 8, !tbaa !159
  %173 = getelementptr inbounds nuw %struct.AV1RawFrameHeader, ptr %172, i32 0, i32 23
  %174 = load i16, ptr %173, align 4, !tbaa !254
  %175 = zext i16 %174 to i64
  %176 = load ptr, ptr %13, align 8, !tbaa !226
  %177 = getelementptr inbounds nuw %struct.AV1ReferenceFrameState, ptr %176, i32 0, i32 6
  %178 = load i32, ptr %177, align 4, !tbaa !246
  %179 = sub nsw i32 %178, 1
  %180 = sext i32 %179 to i64
  call void (ptr, i32, ptr, ...) @av_log(ptr noundef %171, i32 noundef 16, ptr noundef @.str.317, ptr noundef @.str.148, i64 noundef %175, i64 noundef %180)
  store i32 -1094995529, ptr %4, align 4
  store i32 1, ptr %12, align 4
  br label %209

181:                                              ; preds = %158
  br label %182

182:                                              ; preds = %181
  br label %183

183:                                              ; preds = %182
  %184 = load ptr, ptr %13, align 8, !tbaa !226
  %185 = getelementptr inbounds nuw %struct.AV1ReferenceFrameState, ptr %184, i32 0, i32 2
  %186 = load i32, ptr %185, align 4, !tbaa !238
  %187 = load ptr, ptr %8, align 8, !tbaa !37
  %188 = getelementptr inbounds nuw %struct.CodedBitstreamAV1Context, ptr %187, i32 0, i32 14
  store i32 %186, ptr %188, align 4, !tbaa !239
  %189 = load ptr, ptr %8, align 8, !tbaa !37
  %190 = getelementptr inbounds nuw %struct.CodedBitstreamAV1Context, ptr %189, i32 0, i32 14
  %191 = load i32, ptr %190, align 4, !tbaa !239
  %192 = load ptr, ptr %8, align 8, !tbaa !37
  %193 = getelementptr inbounds nuw %struct.CodedBitstreamAV1Context, ptr %192, i32 0, i32 12
  store i32 %191, ptr %193, align 4, !tbaa !241
  %194 = load ptr, ptr %13, align 8, !tbaa !226
  %195 = getelementptr inbounds nuw %struct.AV1ReferenceFrameState, ptr %194, i32 0, i32 4
  %196 = load i32, ptr %195, align 4, !tbaa !242
  %197 = load ptr, ptr %8, align 8, !tbaa !37
  %198 = getelementptr inbounds nuw %struct.CodedBitstreamAV1Context, ptr %197, i32 0, i32 13
  store i32 %196, ptr %198, align 8, !tbaa !243
  %199 = load ptr, ptr %13, align 8, !tbaa !226
  %200 = getelementptr inbounds nuw %struct.AV1ReferenceFrameState, ptr %199, i32 0, i32 5
  %201 = load i32, ptr %200, align 4, !tbaa !244
  %202 = load ptr, ptr %8, align 8, !tbaa !37
  %203 = getelementptr inbounds nuw %struct.CodedBitstreamAV1Context, ptr %202, i32 0, i32 15
  store i32 %201, ptr %203, align 8, !tbaa !245
  %204 = load ptr, ptr %13, align 8, !tbaa !226
  %205 = getelementptr inbounds nuw %struct.AV1ReferenceFrameState, ptr %204, i32 0, i32 6
  %206 = load i32, ptr %205, align 4, !tbaa !246
  %207 = load ptr, ptr %8, align 8, !tbaa !37
  %208 = getelementptr inbounds nuw %struct.CodedBitstreamAV1Context, ptr %207, i32 0, i32 16
  store i32 %206, ptr %208, align 4, !tbaa !247
  store i32 2, ptr %12, align 4
  br label %209

209:                                              ; preds = %183, %168, %142, %116, %90, %67
  call void @llvm.lifetime.end.p0(i64 8, ptr %13) #8
  %210 = load i32, ptr %12, align 4
  switch i32 %210, label %257 [
    i32 2, label %215
  ]

211:                                              ; preds = %44
  br label %212

212:                                              ; preds = %211
  %213 = load i32, ptr %9, align 4, !tbaa !11
  %214 = add nsw i32 %213, 1
  store i32 %214, ptr %9, align 4, !tbaa !11
  br label %17, !llvm.loop !490

215:                                              ; preds = %209, %17
  %216 = load i32, ptr %9, align 4, !tbaa !11
  %217 = icmp sge i32 %216, 7
  br i1 %217, label %218, label %243

218:                                              ; preds = %215
  br label %219

219:                                              ; preds = %218
  %220 = load ptr, ptr %5, align 8, !tbaa !4
  %221 = load ptr, ptr %6, align 8, !tbaa !71
  %222 = load ptr, ptr %7, align 8, !tbaa !159
  %223 = call i32 @cbs_av1_write_frame_size(ptr noundef %220, ptr noundef %221, ptr noundef %222)
  store i32 %223, ptr %10, align 4, !tbaa !11
  %224 = load i32, ptr %10, align 4, !tbaa !11
  %225 = icmp slt i32 %224, 0
  br i1 %225, label %226, label %228

226:                                              ; preds = %219
  %227 = load i32, ptr %10, align 4, !tbaa !11
  store i32 %227, ptr %4, align 4
  store i32 1, ptr %12, align 4
  br label %257

228:                                              ; preds = %219
  br label %229

229:                                              ; preds = %228
  br label %230

230:                                              ; preds = %229
  br label %231

231:                                              ; preds = %230
  %232 = load ptr, ptr %5, align 8, !tbaa !4
  %233 = load ptr, ptr %6, align 8, !tbaa !71
  %234 = load ptr, ptr %7, align 8, !tbaa !159
  %235 = call i32 @cbs_av1_write_render_size(ptr noundef %232, ptr noundef %233, ptr noundef %234)
  store i32 %235, ptr %10, align 4, !tbaa !11
  %236 = load i32, ptr %10, align 4, !tbaa !11
  %237 = icmp slt i32 %236, 0
  br i1 %237, label %238, label %240

238:                                              ; preds = %231
  %239 = load i32, ptr %10, align 4, !tbaa !11
  store i32 %239, ptr %4, align 4
  store i32 1, ptr %12, align 4
  br label %257

240:                                              ; preds = %231
  br label %241

241:                                              ; preds = %240
  br label %242

242:                                              ; preds = %241
  br label %256

243:                                              ; preds = %215
  br label %244

244:                                              ; preds = %243
  %245 = load ptr, ptr %5, align 8, !tbaa !4
  %246 = load ptr, ptr %6, align 8, !tbaa !71
  %247 = load ptr, ptr %7, align 8, !tbaa !159
  %248 = call i32 @cbs_av1_write_superres_params(ptr noundef %245, ptr noundef %246, ptr noundef %247)
  store i32 %248, ptr %10, align 4, !tbaa !11
  %249 = load i32, ptr %10, align 4, !tbaa !11
  %250 = icmp slt i32 %249, 0
  br i1 %250, label %251, label %253

251:                                              ; preds = %244
  %252 = load i32, ptr %10, align 4, !tbaa !11
  store i32 %252, ptr %4, align 4
  store i32 1, ptr %12, align 4
  br label %257

253:                                              ; preds = %244
  br label %254

254:                                              ; preds = %253
  br label %255

255:                                              ; preds = %254
  br label %256

256:                                              ; preds = %255, %242
  store i32 0, ptr %4, align 4
  store i32 1, ptr %12, align 4
  br label %257

257:                                              ; preds = %256, %251, %238, %226, %209, %38
  call void @llvm.lifetime.end.p0(i64 4, ptr %10) #8
  call void @llvm.lifetime.end.p0(i64 4, ptr %9) #8
  call void @llvm.lifetime.end.p0(i64 8, ptr %8) #8
  %258 = load i32, ptr %4, align 4
  ret i32 %258
}