; Function Attrs: nounwind uwtable
define internal fastcc range(i32 -2147483648, 1) i32 @cbs_av1_write_frame_size_with_refs(ptr noundef %0, ptr noundef %1, ptr noundef readonly captures(none) %2) unnamed_addr #0 {
  %4 = alloca [2 x i32], align 4
  %5 = getelementptr inbounds nuw i8, ptr %0, i64 16
  %6 = load ptr, ptr %5, align 8, !tbaa !33
  %7 = getelementptr inbounds nuw i8, ptr %4, i64 4
  %8 = getelementptr inbounds nuw i8, ptr %2, i64 170
  br label %9

9:                                                ; preds = %3, %73
  %indvars.iv = phi i64 [ 0, %3 ], [ %indvars.iv.next, %73 ]
  store i32 1, ptr %4, align 4, !tbaa !69
  %10 = trunc nuw nsw i64 %indvars.iv to i32
  store i32 %10, ptr %7, align 4, !tbaa !69
  %11 = getelementptr inbounds nuw [7 x i8], ptr %8, i64 0, i64 %indvars.iv
  %12 = load i8, ptr %11, align 1, !tbaa !20
  %13 = zext i8 %12 to i32
  %14 = call i32 @ff_cbs_write_unsigned(ptr noundef %0, ptr noundef %1, i32 noundef 1, ptr noundef nonnull @.str.149, ptr noundef nonnull %4, i32 noundef %13, i32 noundef 0, i32 noundef 1) #8
  %15 = icmp slt i32 %14, 0
  br i1 %15, label %.critedge, label %16

16:                                               ; preds = %9
  %17 = load i8, ptr %11, align 1, !tbaa !20
  %.not = icmp eq i8 %17, 0
  br i1 %.not, label %73, label %18

18:                                               ; preds = %16
  %19 = getelementptr inbounds nuw i8, ptr %6, i64 184
  %20 = getelementptr inbounds nuw i8, ptr %2, i64 190
  %21 = getelementptr inbounds nuw [7 x i8], ptr %20, i64 0, i64 %indvars.iv
  %22 = load i8, ptr %21, align 1, !tbaa !20
  %23 = sext i8 %22 to i64
  %24 = getelementptr inbounds [8 x %struct.AV1ReferenceFrameState], ptr %19, i64 0, i64 %23
  %25 = load i32, ptr %24, align 4, !tbaa !218
  %.not77 = icmp eq i32 %25, 0
  br i1 %.not77, label %26, label %29

26:                                               ; preds = %18
  %27 = load ptr, ptr %0, align 8, !tbaa !19
  %28 = sext i8 %22 to i32
  call void (ptr, i32, ptr, ...) @av_log(ptr noundef %27, i32 noundef 16, ptr noundef nonnull @.str.150, i32 noundef %10, i32 noundef %28) #8
  br label %.critedge

29:                                               ; preds = %18
  %30 = getelementptr inbounds nuw i8, ptr %2, i64 158
  %31 = load i16, ptr %30, align 2, !tbaa !242
  %32 = zext i16 %31 to i32
  %33 = getelementptr inbounds nuw i8, ptr %24, i64 8
  %34 = load i32, ptr %33, align 4, !tbaa !228
  %35 = add nsw i32 %34, -1
  %.not78 = icmp eq i32 %35, %32
  br i1 %.not78, label %40, label %36

36:                                               ; preds = %29
  %37 = load ptr, ptr %0, align 8, !tbaa !19
  %38 = zext i16 %31 to i64
  %39 = sext i32 %35 to i64
  call void (ptr, i32, ptr, ...) @av_log(ptr noundef %37, i32 noundef 16, ptr noundef nonnull @.str.317, ptr noundef nonnull @.str.142, i64 noundef %38, i64 noundef %39) #8
  br label %.critedge

40:                                               ; preds = %29
  %41 = getelementptr inbounds nuw i8, ptr %2, i64 160
  %42 = load i16, ptr %41, align 4, !tbaa !243
  %43 = zext i16 %42 to i32
  %44 = getelementptr inbounds nuw i8, ptr %24, i64 16
  %45 = load i32, ptr %44, align 4, !tbaa !232
  %46 = add nsw i32 %45, -1
  %.not79 = icmp eq i32 %46, %43
  br i1 %.not79, label %51, label %47

47:                                               ; preds = %40
  %48 = load ptr, ptr %0, align 8, !tbaa !19
  %49 = zext i16 %42 to i64
  %50 = sext i32 %46 to i64
  call void (ptr, i32, ptr, ...) @av_log(ptr noundef %48, i32 noundef 16, ptr noundef nonnull @.str.317, ptr noundef nonnull @.str.143, i64 noundef %49, i64 noundef %50) #8
  br label %.critedge

51:                                               ; preds = %40
  %52 = getelementptr inbounds nuw i8, ptr %2, i64 166
  %53 = load i16, ptr %52, align 2, !tbaa !244
  %54 = zext i16 %53 to i32
  %55 = getelementptr inbounds nuw i8, ptr %24, i64 20
  %56 = load i32, ptr %55, align 4, !tbaa !234
  %57 = add nsw i32 %56, -1
  %.not80 = icmp eq i32 %57, %54
  br i1 %.not80, label %62, label %58

58:                                               ; preds = %51
  %59 = load ptr, ptr %0, align 8, !tbaa !19
  %60 = zext i16 %53 to i64
  %61 = sext i32 %57 to i64
  call void (ptr, i32, ptr, ...) @av_log(ptr noundef %59, i32 noundef 16, ptr noundef nonnull @.str.317, ptr noundef nonnull @.str.147, i64 noundef %60, i64 noundef %61) #8
  br label %.critedge

62:                                               ; preds = %51
  %63 = getelementptr inbounds nuw i8, ptr %2, i64 168
  %64 = load i16, ptr %63, align 4, !tbaa !245
  %65 = zext i16 %64 to i32
  %66 = getelementptr inbounds nuw i8, ptr %24, i64 24
  %67 = load i32, ptr %66, align 4, !tbaa !236
  %68 = add nsw i32 %67, -1
  %.not81 = icmp eq i32 %68, %65
  br i1 %.not81, label %80, label %69

69:                                               ; preds = %62
  %70 = load ptr, ptr %0, align 8, !tbaa !19
  %71 = zext i16 %64 to i64
  %72 = sext i32 %68 to i64
  call void (ptr, i32, ptr, ...) @av_log(ptr noundef %70, i32 noundef 16, ptr noundef nonnull @.str.317, ptr noundef nonnull @.str.148, i64 noundef %71, i64 noundef %72) #8
  br label %.critedge

73:                                               ; preds = %16
  %indvars.iv.next = add nuw nsw i64 %indvars.iv, 1
  %exitcond.not = icmp eq i64 %indvars.iv.next, 7
  br i1 %exitcond.not, label %74, label %9, !llvm.loop !428

74:                                               ; preds = %73
  %75 = call fastcc i32 @cbs_av1_write_frame_size(ptr noundef %0, ptr noundef %1, ptr noundef nonnull %2)
  %76 = icmp slt i32 %75, 0
  br i1 %76, label %.critedge, label %77

77:                                               ; preds = %74
  %78 = call fastcc i32 @cbs_av1_write_render_size(ptr noundef %0, ptr noundef %1, ptr noundef nonnull %2)
  %79 = icmp slt i32 %78, 0
  br i1 %79, label %.critedge, label %88

80:                                               ; preds = %62
  %81 = getelementptr inbounds nuw i8, ptr %6, i64 84
  store i32 %34, ptr %81, align 4, !tbaa !229
  %82 = getelementptr inbounds nuw i8, ptr %6, i64 76
  store i32 %34, ptr %82, align 4, !tbaa !231
  %83 = getelementptr inbounds nuw i8, ptr %6, i64 80
  store i32 %45, ptr %83, align 8, !tbaa !233
  %84 = getelementptr inbounds nuw i8, ptr %6, i64 88
  store i32 %56, ptr %84, align 8, !tbaa !235
  %85 = getelementptr inbounds nuw i8, ptr %6, i64 92
  store i32 %67, ptr %85, align 4, !tbaa !237
  %86 = call fastcc i32 @cbs_av1_write_superres_params(ptr noundef %0, ptr noundef %1, ptr noundef nonnull %2)
  %87 = icmp slt i32 %86, 0
  br i1 %87, label %.critedge, label %88

88:                                               ; preds = %80, %77
  br label %.critedge

.critedge:                                        ; preds = %9, %36, %47, %58, %69, %26, %80, %77, %74, %88
  %.0 = phi i32 [ 0, %88 ], [ %75, %74 ], [ %78, %77 ], [ %86, %80 ], [ -1094995529, %26 ], [ -1094995529, %69 ], [ -1094995529, %58 ], [ -1094995529, %47 ], [ -1094995529, %36 ], [ %14, %9 ]
  ret i32 %.0
}